	.cpu cortex-m0
	.fpu softvfp
	.eabi_attribute 20, 1
	.eabi_attribute 21, 1
	.eabi_attribute 23, 3
	.eabi_attribute 24, 1
	.eabi_attribute 25, 1
	.eabi_attribute 26, 1
	.eabi_attribute 30, 6
	.eabi_attribute 34, 0
	.eabi_attribute 18, 4
	.code	16
	.file	"main.c"
	.text
.Ltext0:
	.cfi_sections	.debug_frame
	.align	2
	.code	16
	.thumb_func
	.type	NVIC_EnableIRQ, %function
NVIC_EnableIRQ:
.LFB24:
	.file 1 "C:\\STM32F0_Development\\STM32F0xx_StdPeriph_Lib_V1.3.1\\Libraries\\CMSIS\\Include/core_cm0.h"
	.loc 1 516 0
	.cfi_startproc
	push	{r7, lr}
	.cfi_def_cfa_offset 8
	.cfi_offset 7, -8
	.cfi_offset 14, -4
	sub	sp, sp, #8
	.cfi_def_cfa_offset 16
	add	r7, sp, #0
	.cfi_def_cfa_register 7
	mov	r2, r0
	add	r3, r7, #7
	strb	r2, [r3]
	.loc 1 517 0
	ldr	r3, .L2
	add	r2, r7, #7
	ldrb	r2, [r2]
	mov	r1, r2
	mov	r2, #31
	and	r2, r1
	mov	r1, #1
	mov	r0, r1
	lsl	r0, r0, r2
	mov	r2, r0
	str	r2, [r3]
	.loc 1 518 0
	mov	sp, r7
	add	sp, sp, #8
	@ sp needed
	pop	{r7, pc}
.L3:
	.align	2
.L2:
	.word	-536813312
	.cfi_endproc
.LFE24:
	.size	NVIC_EnableIRQ, .-NVIC_EnableIRQ
	.align	2
	.global	main
	.code	16
	.thumb_func
	.type	main, %function
main:
.LFB33:
	.file 2 "main.c"
	.loc 2 12 0
	.cfi_startproc
	push	{r7, lr}
	.cfi_def_cfa_offset 8
	.cfi_offset 7, -8
	.cfi_offset 14, -4
	sub	sp, sp, #8
	.cfi_def_cfa_offset 16
	add	r7, sp, #0
	.cfi_def_cfa_register 7
	.loc 2 13 0
	bl	init_leds
	.loc 2 14 0
	bl	init_push_buttons
	.loc 2 15 0
	bl	init_EXTI
	.loc 2 16 0
	bl	init_NVIC
.L7:
	.loc 2 19 0
	ldr	r2, .L8
	ldr	r3, .L8
	ldr	r3, [r3, #20]
	uxth	r3, r3
	add	r3, r3, #1
	uxth	r3, r3
	strh	r3, [r2, #20]
.LBB2:
	.loc 2 20 0
	mov	r3, #0
	str	r3, [r7, #4]
	b	.L5
.L6:
	.loc 2 20 0 is_stmt 0 discriminator 2
	ldr	r3, [r7, #4]
	add	r3, r3, #1
	str	r3, [r7, #4]
.L5:
	.loc 2 20 0 discriminator 1
	ldr	r2, [r7, #4]
	ldr	r3, .L8+4
	cmp	r2, r3
	ble	.L6
.LBE2:
	.loc 2 21 0 is_stmt 1
	b	.L7
.L9:
	.align	2
.L8:
	.word	1207960576
	.word	65534
	.cfi_endproc
.LFE33:
	.size	main, .-main
	.align	2
	.global	EXTI4_15_IRQHandler
	.code	16
	.thumb_func
	.type	EXTI4_15_IRQHandler, %function
EXTI4_15_IRQHandler:
.LFB34:
	.loc 2 25 0
	.cfi_startproc
	push	{r7, lr}
	.cfi_def_cfa_offset 8
	.cfi_offset 7, -8
	.cfi_offset 14, -4
	add	r7, sp, #0
	.cfi_def_cfa_register 7
	.loc 2 26 0
	ldr	r3, .L11
	ldr	r2, .L11
	ldr	r2, [r2, #20]
	mov	r1, #128
	lsl	r1, r1, #5
	orr	r2, r1
	str	r2, [r3, #20]
	.loc 2 27 0
	ldr	r3, .L11+4
	mov	r2, #0
	strh	r2, [r3, #20]
	.loc 2 28 0
	mov	sp, r7
	@ sp needed
	pop	{r7, pc}
.L12:
	.align	2
.L11:
	.word	1073808384
	.word	1207960576
	.cfi_endproc
.LFE34:
	.size	EXTI4_15_IRQHandler, .-EXTI4_15_IRQHandler
	.align	2
	.global	init_leds
	.code	16
	.thumb_func
	.type	init_leds, %function
init_leds:
.LFB35:
	.loc 2 30 0
	.cfi_startproc
	push	{r7, lr}
	.cfi_def_cfa_offset 8
	.cfi_offset 7, -8
	.cfi_offset 14, -4
	add	r7, sp, #0
	.cfi_def_cfa_register 7
	.loc 2 31 0
	ldr	r3, .L14
	ldr	r2, .L14
	ldr	r2, [r2, #20]
	mov	r1, #128
	lsl	r1, r1, #11
	orr	r2, r1
	str	r2, [r3, #20]
	.loc 2 32 0
	ldr	r3, .L14+4
	ldr	r2, .L14+4
	ldr	r2, [r2]
	mov	r1, #1
	orr	r2, r1
	str	r2, [r3]
	.loc 2 33 0
	ldr	r3, .L14+4
	ldr	r2, .L14+4
	ldr	r2, [r2]
	mov	r1, #4
	orr	r2, r1
	str	r2, [r3]
	.loc 2 34 0
	ldr	r3, .L14+4
	ldr	r2, .L14+4
	ldr	r2, [r2]
	mov	r1, #16
	orr	r2, r1
	str	r2, [r3]
	.loc 2 35 0
	ldr	r3, .L14+4
	ldr	r2, .L14+4
	ldr	r2, [r2]
	mov	r1, #64
	orr	r2, r1
	str	r2, [r3]
	.loc 2 36 0
	ldr	r3, .L14+4
	ldr	r2, .L14+4
	ldr	r2, [r2]
	mov	r1, #128
	lsl	r1, r1, #1
	orr	r2, r1
	str	r2, [r3]
	.loc 2 37 0
	ldr	r3, .L14+4
	ldr	r2, .L14+4
	ldr	r2, [r2]
	mov	r1, #128
	lsl	r1, r1, #3
	orr	r2, r1
	str	r2, [r3]
	.loc 2 38 0
	ldr	r3, .L14+4
	ldr	r2, .L14+4
	ldr	r2, [r2]
	mov	r1, #128
	lsl	r1, r1, #5
	orr	r2, r1
	str	r2, [r3]
	.loc 2 39 0
	ldr	r3, .L14+4
	ldr	r2, .L14+4
	ldr	r2, [r2]
	mov	r1, #128
	lsl	r1, r1, #7
	orr	r2, r1
	str	r2, [r3]
	.loc 2 40 0
	mov	sp, r7
	@ sp needed
	pop	{r7, pc}
.L15:
	.align	2
.L14:
	.word	1073876992
	.word	1207960576
	.cfi_endproc
.LFE35:
	.size	init_leds, .-init_leds
	.align	2
	.global	init_push_buttons
	.code	16
	.thumb_func
	.type	init_push_buttons, %function
init_push_buttons:
.LFB36:
	.loc 2 42 0
	.cfi_startproc
	push	{r7, lr}
	.cfi_def_cfa_offset 8
	.cfi_offset 7, -8
	.cfi_offset 14, -4
	add	r7, sp, #0
	.cfi_def_cfa_register 7
	.loc 2 43 0
	ldr	r3, .L17
	ldr	r2, .L17
	ldr	r2, [r2, #20]
	mov	r1, #128
	lsl	r1, r1, #11
	orr	r2, r1
	str	r2, [r3, #20]
	.loc 2 45 0
	ldr	r3, .L17+4
	ldr	r2, .L17+4
	ldr	r1, [r2]
	ldr	r2, .L17+8
	and	r2, r1
	str	r2, [r3]
	.loc 2 46 0
	ldr	r3, .L17+4
	ldr	r2, .L17+4
	ldr	r1, [r2]
	ldr	r2, .L17+12
	and	r2, r1
	str	r2, [r3]
	.loc 2 47 0
	ldr	r3, .L17+4
	ldr	r2, .L17+4
	ldr	r1, [r2]
	ldr	r2, .L17+16
	and	r2, r1
	str	r2, [r3]
	.loc 2 48 0
	ldr	r3, .L17+4
	ldr	r2, .L17+4
	ldr	r2, [r2]
	lsl	r2, r2, #2
	lsr	r2, r2, #2
	str	r2, [r3]
	.loc 2 50 0
	ldr	r3, .L17+4
	ldr	r2, .L17+4
	ldr	r2, [r2, #12]
	mov	r1, #128
	lsl	r1, r1, #17
	orr	r2, r1
	str	r2, [r3, #12]
	.loc 2 51 0
	ldr	r3, .L17+4
	ldr	r2, .L17+4
	ldr	r2, [r2, #12]
	mov	r1, #128
	lsl	r1, r1, #19
	orr	r2, r1
	str	r2, [r3, #12]
	.loc 2 52 0
	ldr	r3, .L17+4
	ldr	r2, .L17+4
	ldr	r2, [r2, #12]
	mov	r1, #128
	lsl	r1, r1, #21
	orr	r2, r1
	str	r2, [r3, #12]
	.loc 2 53 0
	ldr	r3, .L17+4
	ldr	r2, .L17+4
	ldr	r2, [r2, #12]
	mov	r1, #128
	lsl	r1, r1, #23
	orr	r2, r1
	str	r2, [r3, #12]
	.loc 2 54 0
	mov	sp, r7
	@ sp needed
	pop	{r7, pc}
.L18:
	.align	2
.L17:
	.word	1073876992
	.word	1207960576
	.word	-50331649
	.word	-201326593
	.word	-805306369
	.cfi_endproc
.LFE36:
	.size	init_push_buttons, .-init_push_buttons
	.align	2
	.global	init_EXTI
	.code	16
	.thumb_func
	.type	init_EXTI, %function
init_EXTI:
.LFB37:
	.loc 2 56 0
	.cfi_startproc
	push	{r7, lr}
	.cfi_def_cfa_offset 8
	.cfi_offset 7, -8
	.cfi_offset 14, -4
	add	r7, sp, #0
	.cfi_def_cfa_register 7
	.loc 2 57 0
	ldr	r3, .L20
	ldr	r2, .L20
	ldr	r2, [r2, #24]
	mov	r1, #1
	orr	r2, r1
	str	r2, [r3, #24]
	.loc 2 58 0
	ldr	r3, .L20+4
	ldr	r2, .L20+4
	ldr	r2, [r2, #20]
	mov	r1, #1
	orr	r2, r1
	str	r2, [r3, #20]
	.loc 2 59 0
	ldr	r3, .L20+8
	ldr	r2, .L20+8
	ldr	r2, [r2]
	mov	r1, #128
	lsl	r1, r1, #5
	orr	r2, r1
	str	r2, [r3]
	.loc 2 60 0
	ldr	r3, .L20+8
	ldr	r2, .L20+8
	ldr	r2, [r2, #8]
	mov	r1, #128
	lsl	r1, r1, #5
	orr	r2, r1
	str	r2, [r3, #8]
	.loc 2 62 0
	mov	sp, r7
	@ sp needed
	pop	{r7, pc}
.L21:
	.align	2
.L20:
	.word	1073876992
	.word	1073807360
	.word	1073808384
	.cfi_endproc
.LFE37:
	.size	init_EXTI, .-init_EXTI
	.align	2
	.global	init_NVIC
	.code	16
	.thumb_func
	.type	init_NVIC, %function
init_NVIC:
.LFB38:
	.loc 2 63 0
	.cfi_startproc
	push	{r7, lr}
	.cfi_def_cfa_offset 8
	.cfi_offset 7, -8
	.cfi_offset 14, -4
	add	r7, sp, #0
	.cfi_def_cfa_register 7
	.loc 2 64 0
	mov	r0, #7
	bl	NVIC_EnableIRQ
	.loc 2 65 0
	mov	sp, r7
	@ sp needed
	pop	{r7, pc}
	.cfi_endproc
.LFE38:
	.size	init_NVIC, .-init_NVIC
.Letext0:
	.file 3 "c:\\program files (x86)\\gnu tools arm embedded\\4.8 2013q4\\arm-none-eabi\\include\\stdint.h"
	.file 4 "C:\\STM32F0_Development\\STM32F0xx_StdPeriph_Lib_V1.3.1\\Libraries\\CMSIS\\Device\\ST\\STM32F0xx\\Include/stm32f0xx.h"