	.cpu cortex-m0
	.fpu softvfp
	.eabi_attribute 20, 1
	.eabi_attribute 21, 1
	.eabi_attribute 23, 3
	.eabi_attribute 24, 1
	.eabi_attribute 25, 1
	.eabi_attribute 26, 1
	.eabi_attribute 30, 6
	.eabi_attribute 34, 0
	.eabi_attribute 18, 4
	.code	16
	.file	"main.c"
	.text
.Ltext0:
	.cfi_sections	.debug_frame
	.align	2
	.global	main
	.code	16
	.thumb_func
	.type	main, %function
main:
.LFB33:
	.file 1 "main.c"
	.loc 1 9 0
	.cfi_startproc
	push	{r7, lr}
	.cfi_def_cfa_offset 8
	.cfi_offset 7, -8
	.cfi_offset 14, -4
	add	r7, sp, #0
	.cfi_def_cfa_register 7
	.loc 1 10 0
	bl	init_leds
	.loc 1 11 0
	bl	init_adc
.L3:
	.loc 1 15 0
	ldr	r3, .L4
	ldr	r2, .L4
	ldr	r2, [r2, #8]
	mov	r1, #4
	orr	r2, r1
	str	r2, [r3, #8]
	.loc 1 17 0
	mov	r8, r8
.L2:
	.loc 1 17 0 is_stmt 0 discriminator 1
	ldr	r3, .L4
	ldr	r2, [r3]
	mov	r3, #4
	and	r3, r2
	beq	.L2
	.loc 1 18 0 is_stmt 1
	ldr	r2, .L4+4
	ldr	r3, .L4
	ldr	r3, [r3, #64]
	uxth	r3, r3
	strh	r3, [r2, #20]
	.loc 1 19 0
	b	.L3
.L5:
	.align	2
.L4:
	.word	1073816576
	.word	1207960576
	.cfi_endproc
.LFE33:
	.size	main, .-main
	.align	2
	.global	init_leds
	.code	16
	.thumb_func
	.type	init_leds, %function
init_leds:
.LFB34:
	.loc 1 23 0
	.cfi_startproc
	push	{r7, lr}
	.cfi_def_cfa_offset 8
	.cfi_offset 7, -8
	.cfi_offset 14, -4
	add	r7, sp, #0
	.cfi_def_cfa_register 7
	.loc 1 24 0
	ldr	r3, .L7
	ldr	r2, .L7
	ldr	r2, [r2, #20]
	mov	r1, #128
	lsl	r1, r1, #11
	orr	r2, r1
	str	r2, [r3, #20]
	.loc 1 25 0
	ldr	r3, .L7+4
	ldr	r2, .L7+4
	ldr	r2, [r2]
	mov	r1, #1
	orr	r2, r1
	str	r2, [r3]
	.loc 1 26 0
	ldr	r3, .L7+4
	ldr	r2, .L7+4
	ldr	r2, [r2]
	mov	r1, #4
	orr	r2, r1
	str	r2, [r3]
	.loc 1 27 0
	ldr	r3, .L7+4
	ldr	r2, .L7+4
	ldr	r2, [r2]
	mov	r1, #16
	orr	r2, r1
	str	r2, [r3]
	.loc 1 28 0
	ldr	r3, .L7+4
	ldr	r2, .L7+4
	ldr	r2, [r2]
	mov	r1, #64
	orr	r2, r1
	str	r2, [r3]
	.loc 1 29 0
	ldr	r3, .L7+4
	ldr	r2, .L7+4
	ldr	r2, [r2]
	mov	r1, #128
	lsl	r1, r1, #1
	orr	r2, r1
	str	r2, [r3]
	.loc 1 30 0
	ldr	r3, .L7+4
	ldr	r2, .L7+4
	ldr	r2, [r2]
	mov	r1, #128
	lsl	r1, r1, #3
	orr	r2, r1
	str	r2, [r3]
	.loc 1 31 0
	ldr	r3, .L7+4
	ldr	r2, .L7+4
	ldr	r2, [r2]
	mov	r1, #128
	lsl	r1, r1, #5
	orr	r2, r1
	str	r2, [r3]
	.loc 1 32 0
	ldr	r3, .L7+4
	ldr	r2, .L7+4
	ldr	r2, [r2]
	mov	r1, #128
	lsl	r1, r1, #7
	orr	r2, r1
	str	r2, [r3]
	.loc 1 33 0
	mov	sp, r7
	@ sp needed
	pop	{r7, pc}
.L8:
	.align	2
.L7:
	.word	1073876992
	.word	1207960576
	.cfi_endproc
.LFE34:
	.size	init_leds, .-init_leds
	.align	2
	.global	init_adc
	.code	16
	.thumb_func
	.type	init_adc, %function
init_adc:
.LFB35:
	.loc 1 35 0
	.cfi_startproc
	push	{r7, lr}
	.cfi_def_cfa_offset 8
	.cfi_offset 7, -8
	.cfi_offset 14, -4
	add	r7, sp, #0
	.cfi_def_cfa_register 7
	.loc 1 36 0
	ldr	r3, .L11
	ldr	r2, .L11
	ldr	r2, [r2, #24]
	mov	r1, #128
	lsl	r1, r1, #2
	orr	r2, r1
	str	r2, [r3, #24]
	.loc 1 37 0
	ldr	r3, .L11
	ldr	r2, .L11
	ldr	r2, [r2, #20]
	mov	r1, #128
	lsl	r1, r1, #10
	orr	r2, r1
	str	r2, [r3, #20]
	.loc 1 38 0
	mov	r3, #144
	lsl	r3, r3, #23
	mov	r2, #144
	lsl	r2, r2, #23
	ldr	r2, [r2]
	mov	r1, #192
	lsl	r1, r1, #6
	orr	r2, r1
	str	r2, [r3]
	.loc 1 39 0
	ldr	r3, .L11+4
	ldr	r2, .L11+4
	ldr	r2, [r2, #40]
	mov	r1, #64
	orr	r2, r1
	str	r2, [r3, #40]
	.loc 1 40 0
	ldr	r3, .L11+4
	ldr	r2, .L11+4
	ldr	r2, [r2, #12]
	mov	r1, #16
	orr	r2, r1
	str	r2, [r3, #12]
	.loc 1 41 0
	ldr	r3, .L11+4
	ldr	r2, .L11+4
	ldr	r2, [r2, #8]
	mov	r1, #1
	orr	r2, r1
	str	r2, [r3, #8]
	.loc 1 42 0
	mov	r8, r8
.L10:
	.loc 1 42 0 is_stmt 0 discriminator 1
	ldr	r3, .L11+4
	ldr	r2, [r3]
	mov	r3, #1
	and	r3, r2
	beq	.L10
	.loc 1 44 0 is_stmt 1
	mov	sp, r7
	@ sp needed
	pop	{r7, pc}
.L12:
	.align	2
.L11:
	.word	1073876992
	.word	1073816576
	.cfi_endproc
.LFE35:
	.size	init_adc, .-init_adc
.Letext0:
	.file 2 "/usr/include/newlib/machine/_default_types.h"
	.file 3 "/usr/include/newlib/stdint.h"
	.file 4 "../../STM32F0xx_StdPeriph_Lib_V1.3.1/Libraries/CMSIS/Device/ST/STM32F0xx/Include/stm32f0xx.h"