	.cpu cortex-m0
	.fpu softvfp
	.eabi_attribute 20, 1
	.eabi_attribute 21, 1
	.eabi_attribute 23, 3
	.eabi_attribute 24, 1
	.eabi_attribute 25, 1
	.eabi_attribute 26, 1
	.eabi_attribute 30, 6
	.eabi_attribute 34, 0
	.eabi_attribute 18, 4
	.code	16
	.file	"main.c"
	.text
.Ltext0:
	.cfi_sections	.debug_frame
	.align	2
	.global	main
	.code	16
	.thumb_func
	.type	main, %function
main:
.LFB33:
	.file 1 "main.c"
	.loc 1 10 0
	.cfi_startproc
	push	{r7, lr}
	.cfi_def_cfa_offset 8
	.cfi_offset 7, -8
	.cfi_offset 14, -4
	sub	sp, sp, #8
	.cfi_def_cfa_offset 16
	add	r7, sp, #0
	.cfi_def_cfa_register 7
	.loc 1 11 0
	add	r3, r7, #7
	mov	r2, #99
	strb	r2, [r3]
	.loc 1 12 0
	bl	init_leds
	.loc 1 13 0
	ldr	r3, .L5
	ldr	r2, .L5
	ldrh	r2, [r2, #20]
	uxth	r2, r2
	mov	r1, #170
	orr	r2, r1
	uxth	r2, r2
	strh	r2, [r3, #20]
	.loc 1 14 0
	bl	init_usart
.L4:
	.loc 1 16 0
	mov	r8, r8
.L2:
	.loc 1 16 0 is_stmt 0 discriminator 1
	ldr	r3, .L5+4
	ldr	r2, [r3, #28]
	mov	r3, #32
	and	r3, r2
	beq	.L2
	.loc 1 17 0 is_stmt 1
	ldr	r3, .L5+4
	ldrh	r3, [r3, #36]
	uxth	r2, r3
	add	r3, r7, #7
	strb	r2, [r3]
	.loc 1 18 0
	ldr	r3, .L5
	add	r2, r7, #7
	ldrb	r2, [r2]
	uxth	r2, r2
	strh	r2, [r3, #20]
	.loc 1 19 0
	ldr	r3, .L5+4
	add	r2, r7, #7
	ldrb	r2, [r2]
	uxth	r2, r2
	add	r2, r2, #1
	uxth	r2, r2
	strh	r2, [r3, #40]
	.loc 1 21 0
	mov	r8, r8
	.loc 1 16 0
	b	.L4
.L6:
	.align	2
.L5:
	.word	1207960576
	.word	1073759232
	.cfi_endproc
.LFE33:
	.size	main, .-main
	.align	2
	.global	delay
	.code	16
	.thumb_func
	.type	delay, %function
delay:
.LFB34:
	.loc 1 24 0
	.cfi_startproc
	push	{r7, lr}
	.cfi_def_cfa_offset 8
	.cfi_offset 7, -8
	.cfi_offset 14, -4
	sub	sp, sp, #8
	.cfi_def_cfa_offset 16
	add	r7, sp, #0
	.cfi_def_cfa_register 7
	.loc 1 25 0
	mov	r3, #0
	str	r3, [r7, #4]
	.loc 1 26 0
	b	.L8
.L9:
	.loc 1 26 0 is_stmt 0 discriminator 2
	ldr	r3, [r7, #4]
	add	r3, r3, #1
	str	r3, [r7, #4]
.L8:
	.loc 1 26 0 discriminator 1
	ldr	r2, [r7, #4]
	ldr	r3, .L10
	cmp	r2, r3
	ble	.L9
	.loc 1 27 0 is_stmt 1
	mov	sp, r7
	add	sp, sp, #8
	@ sp needed
	pop	{r7, pc}
.L11:
	.align	2
.L10:
	.word	565534
	.cfi_endproc
.LFE34:
	.size	delay, .-delay
	.align	2
	.global	init_usart
	.code	16
	.thumb_func
	.type	init_usart, %function
init_usart:
.LFB35:
	.loc 1 31 0
	.cfi_startproc
	push	{r7, lr}
	.cfi_def_cfa_offset 8
	.cfi_offset 7, -8
	.cfi_offset 14, -4
	add	r7, sp, #0
	.cfi_def_cfa_register 7
	.loc 1 33 0
	ldr	r3, .L13
	ldr	r2, .L13
	ldr	r2, [r2, #28]
	mov	r1, #128
	lsl	r1, r1, #10
	orr	r2, r1
	str	r2, [r3, #28]
	.loc 1 35 0
	ldr	r3, .L13
	ldr	r2, .L13
	ldr	r2, [r2, #20]
	mov	r1, #128
	lsl	r1, r1, #10
	orr	r2, r1
	str	r2, [r3, #20]
	.loc 1 37 0
	mov	r3, #144
	lsl	r3, r3, #23
	mov	r2, #144
	lsl	r2, r2, #23
	ldr	r2, [r2]
	mov	r1, #32
	orr	r2, r1
	str	r2, [r3]
	.loc 1 38 0
	mov	r3, #144
	lsl	r3, r3, #23
	mov	r2, #144
	lsl	r2, r2, #23
	ldr	r2, [r2]
	mov	r1, #128
	orr	r2, r1
	str	r2, [r3]
	.loc 1 40 0
	mov	r3, #144
	lsl	r3, r3, #23
	mov	r2, #144
	lsl	r2, r2, #23
	ldr	r2, [r2, #32]
	mov	r1, #128
	lsl	r1, r1, #1
	orr	r2, r1
	str	r2, [r3, #32]
	.loc 1 41 0
	mov	r3, #144
	lsl	r3, r3, #23
	mov	r2, #144
	lsl	r2, r2, #23
	ldr	r2, [r2, #32]
	mov	r1, #128
	lsl	r1, r1, #5
	orr	r2, r1
	str	r2, [r3, #32]
	.loc 1 44 0
	ldr	r3, .L13+4
	ldr	r2, .L13+8
	strh	r2, [r3, #12]
	.loc 1 46 0
	ldr	r3, .L13+4
	ldr	r2, .L13+4
	ldr	r2, [r2]
	mov	r1, #1
	orr	r2, r1
	str	r2, [r3]
	.loc 1 47 0
	ldr	r3, .L13+4
	ldr	r2, .L13+4
	ldr	r2, [r2]
	mov	r1, #4
	orr	r2, r1
	str	r2, [r3]
	.loc 1 48 0
	ldr	r3, .L13+4
	ldr	r2, .L13+4
	ldr	r2, [r2]
	mov	r1, #8
	orr	r2, r1
	str	r2, [r3]
	.loc 1 49 0
	mov	sp, r7
	@ sp needed
	pop	{r7, pc}
.L14:
	.align	2
.L13:
	.word	1073876992
	.word	1073759232
	.word	833
	.cfi_endproc
.LFE35:
	.size	init_usart, .-init_usart
	.align	2
	.global	init_leds
	.code	16
	.thumb_func
	.type	init_leds, %function
init_leds:
.LFB36:
	.loc 1 51 0
	.cfi_startproc
	push	{r7, lr}
	.cfi_def_cfa_offset 8
	.cfi_offset 7, -8
	.cfi_offset 14, -4
	add	r7, sp, #0
	.cfi_def_cfa_register 7
	.loc 1 52 0
	ldr	r3, .L16
	ldr	r2, .L16
	ldr	r2, [r2, #20]
	mov	r1, #128
	lsl	r1, r1, #11
	orr	r2, r1
	str	r2, [r3, #20]
	.loc 1 53 0
	ldr	r3, .L16+4
	ldr	r2, .L16+4
	ldr	r2, [r2]
	mov	r1, #1
	orr	r2, r1
	str	r2, [r3]
	.loc 1 54 0
	ldr	r3, .L16+4
	ldr	r2, .L16+4
	ldr	r2, [r2]
	mov	r1, #4
	orr	r2, r1
	str	r2, [r3]
	.loc 1 55 0
	ldr	r3, .L16+4
	ldr	r2, .L16+4
	ldr	r2, [r2]
	mov	r1, #16
	orr	r2, r1
	str	r2, [r3]
	.loc 1 56 0
	ldr	r3, .L16+4
	ldr	r2, .L16+4
	ldr	r2, [r2]
	mov	r1, #64
	orr	r2, r1
	str	r2, [r3]
	.loc 1 57 0
	ldr	r3, .L16+4
	ldr	r2, .L16+4
	ldr	r2, [r2]
	mov	r1, #128
	lsl	r1, r1, #1
	orr	r2, r1
	str	r2, [r3]
	.loc 1 58 0
	ldr	r3, .L16+4
	ldr	r2, .L16+4
	ldr	r2, [r2]
	mov	r1, #128
	lsl	r1, r1, #3
	orr	r2, r1
	str	r2, [r3]
	.loc 1 59 0
	ldr	r3, .L16+4
	ldr	r2, .L16+4
	ldr	r2, [r2]
	mov	r1, #128
	lsl	r1, r1, #5
	orr	r2, r1
	str	r2, [r3]
	.loc 1 60 0
	ldr	r3, .L16+4
	ldr	r2, .L16+4
	ldr	r2, [r2]
	mov	r1, #128
	lsl	r1, r1, #7
	orr	r2, r1
	str	r2, [r3]
	.loc 1 61 0
	mov	sp, r7
	@ sp needed
	pop	{r7, pc}
.L17:
	.align	2
.L16:
	.word	1073876992
	.word	1207960576
	.cfi_endproc
.LFE36:
	.size	init_leds, .-init_leds
.Letext0:
	.file 2 "/usr/arm-none-eabi/include/machine/_default_types.h"
	.file 3 "/usr/arm-none-eabi/include/stdint.h"
	.file 4 "../../STM32F0xx_StdPeriph_Lib_V1.3.1/Libraries/CMSIS/Device/ST/STM32F0xx/Include/stm32f0xx.h"